(dp0
(S'EX'
p1
S'O'
p2
tp3
F0.000363924389356282
s(S'JJS'
p4
S'I-PP'
p5
tp6
F0.0029498525073746312
s(S'VBD'
p7
g2
tp8
F0.0008562926808383106
s(S'Australia'
p9
S'I-NP'
p10
tp11
F1.2872829319156057e-05
s(S'NN'
p12
S'I-VP'
p13
tp14
F0.006280292170114001
s(S'$'
p15
S'I-NP'
p16
tp17
F0.007041437637578364
s(S'VB'
p18
S'I-NP'
p19
tp20
F0.0006178958073194907
s(S'2'
p21
S'I-NP'
p22
tp23
F0.0007594969298302074
s(S'VBG'
p24
g2
tp25
F0.0004067390233981975
s(S'DT'
p26
S'I-PP'
p27
tp28
F0.0029498525073746312
s(S'2-mile'
p29
S'I-NP'
p30
tp31
F1.2872829319156057e-05
s(S'VBP'
p32
S'B-NP'
p33
tp34
F0.0001629557204864969
s(S'JJ'
p35
S'B-PP'
p36
tp37
F0.0042158516020236085
s(S'PRP$'
p38
S'B-NP'
p39
tp40
F0.0336725775150734
s(S'IN'
p41
S'I-NP'
p42
tp43
F0.0033984269402571993
s(S'VBZ'
p44
S'I-VP'
p45
tp46
F0.0024575056317837395
s(S'NNS'
p47
S'I-VP'
p48
tp49
F0.0002730561813093044
s(S'TO'
p50
g2
tp51
F0.0009847365829640572
s(S'TO'
p52
S'B-VP'
p53
tp54
F0.08409569377990431
s(S'``'
p55
S'B-VP'
p56
tp57
F0.0002679425837320574
s(S'UH'
p58
g2
tp59
F0.0002782951212724509
s(S'NN'
p60
S'B-PP'
p61
tp62
F0.0005748888548214012
s(S','
p63
S'B-VP'
p64
tp65
F0.00022966507177033492
s(S'VBN'
p66
S'I-NP'
p67
tp68
F0.006848345197791023
s(S'JJS'
p69
g2
tp70
F0.0011988097531736347
s(S'PRP'
p71
S'I-NP'
p72
tp73
F0.00020596526910649692
s(S'IN'
p74
S'B-PP'
p75
tp76
F0.8756323777403036
s(S'VB'
p77
S'B-PP'
p78
tp79
F0.0002299555419285605
s(S'PRP$'
p80
S'I-NP'
p81
tp82
F0.00028320224502143324
s(S'JJ'
p83
S'B-NP'
p84
tp85
F0.07872242715138586
s(S'POS'
p86
g2
tp87
F4.281463404191553e-05
s(S'VB'
p88
S'I-VP'
p89
tp90
F0.4456959519421121
s(S'VBP'
p91
S'B-VP'
p92
tp93
F0.12482296650717703
s(S'IN'
p94
S'I-VP'
p95
tp96
F0.0017066011331831525
s(S'McGraw'
p97
S'B-NP'
p98
tp99
F1.4814156407863355e-05
s(S'100ths'
p100
S'B-NP'
p101
tp102
F1.4814156407863355e-05
s(S'MD'
p103
S'I-VP'
p104
tp105
F0.0006143764079459349
s(S'RBR'
p106
S'B-PP'
p107
tp108
F0.00011497777096428024
s(S'T'
p109
S'I-NP'
p110
tp111
F1.2872829319156057e-05
s(S'Southwest'
p112
S'B-NP'
p113
tp114
F1.4814156407863355e-05
s(S')'
p115
g2
tp116
F0.007449746323293302
s(S"''"
p117
g2
tp118
F0.03624258771648149
s(S'``'
p119
g2
tp120
F0.034208892599490504
s(S'.'
p121
g2
tp122
F0.23079228480294564
s(S'JJS'
p123
S'I-VP'
p124
tp125
F0.0001365280906546522
s(S'CC'
p126
S'B-NP'
p127
tp128
F0.0003555397537887205
s(S'2007'
p129
S'B-NP'
p130
tp131
F4.444246922359006e-05
s(S'#'
p132
g2
tp133
F0.00014985121914670434
s(g63
S'B-NP'
p134
tp135
F0.00039998222301231056
s(S"''"
p136
S'I-VP'
p137
tp138
F0.0001365280906546522
s(S'VBG'
p139
S'B-VP'
p140
tp141
F0.07245933014354067
s(S'VBN'
p142
S'B-PP'
p143
tp144
F0.003487659052583167
s(S'VBG'
p145
S'B-NP'
p146
tp147
F0.0036294683199265218
s(S'JJ'
p148
S'I-VP'
p149
tp150
F0.0038910505836575876
s(S'CC'
p151
S'B-PP'
p152
tp153
F0.0032193775869998466
s(S'VBD'
p154
S'B-VP'
p155
tp156
F0.31207655502392345
s(S'ABC'
p157
S'I-NP'
p158
tp159
F2.5745658638312115e-05
s(S'VBD'
p160
S'I-NP'
p161
tp162
F0.0007337512711918953
s(S'NNS'
p163
S'B-NP'
p164
tp165
F0.06263425329244626
s(S'100'
p166
S'B-NP'
p167
tp168
F1.4814156407863355e-05
s(S'START'
p169
S'ST'
p170
tp171
F1.0
s(S'EX'
p172
S'B-NP'
p173
tp174
F0.003510955068663615
s(S'RP'
p175
S'B-PP'
p176
tp177
F0.00042158516020236085
s(S'CC'
p178
S'I-PP'
p179
tp180
F0.0943952802359882
s(S':'
p181
g2
tp182
F0.02708025603151157
s(S'VBN'
p183
S'B-NP'
p184
tp185
F0.0034665125994400247
s(S'JJR'
p186
S'I-NP'
p187
tp188
F0.0032053345004698585
s(S'MD'
p189
S'B-VP'
p190
tp191
F0.09864114832535885
s(S'VBN'
p192
S'B-VP'
p193
tp194
F0.051215311004784686
s(S'RB'
p195
S'I-PP'
p196
tp197
F0.035398230088495575
s(S'RB'
p198
S'I-VP'
p199
tp200
F0.10355655676155369
s(S'Democratic-legislature'
p201
S'B-NP'
p202
tp203
F1.4814156407863355e-05
s(S'CC'
p204
S'B-VP'
p205
tp206
F3.8277511961722486e-05
s(S'PRP'
p207
S'B-VP'
p208
tp209
F0.00011483253588516746
s(S'JJ'
p210
g2
tp211
F0.04709609744610708
s(S'VB'
p212
S'B-VP'
p213
tp214
F0.019980861244019137
s(S'earnings'
p215
S'B-NP'
p216
tp217
F1.4814156407863355e-05
s(S'VBG'
p218
S'B-PP'
p219
tp220
F0.01019469569216618
s(S'JJ'
p221
S'I-PP'
p222
tp223
F0.0029498525073746312
s(S'Eagle'
p224
S'B-NP'
p225
tp226
F5.925662563145342e-05
s(S"''"
p227
S'I-NP'
p228
tp229
F0.0013001557612347617
s(S'RP'
p230
g2
tp231
F0.0017982146297604521
s(S'32'
p232
S'B-NP'
p233
tp234
F0.00017776987689436025
s(S'DT'
p235
S'I-VP'
p236
tp237
F0.0006143764079459349
s(S'NN'
p238
S'B-NP'
p239
tp240
F0.09338844199517059
s(S'JJR'
p241
S'B-PP'
p242
tp243
F7.665184730952016e-05
s(S'E'
p244
S'B-NP'
p245
tp246
F1.4814156407863355e-05
s(S'Day\\'
p247
S'B-NP'
p248
tp249
F2.962831281572671e-05
s(S'MD'
p250
S'B-NP'
p251
tp252
F1.4814156407863355e-05
s(S'RBS'
p253
S'B-VP'
p254
tp255
F0.00019138755980861245
s(S'NN'
p256
S'B-VP'
p257
tp258
F0.012057416267942584
s(S'Zweig'
p259
S'B-NP'
p260
tp261
F1.4814156407863355e-05
s(S'UA'
p262
S'B-NP'
p263
tp264
F5.925662563145342e-05
s(S'NNP'
p265
g2
tp266
F0.0021407317020957764
s(S'VMS'
p267
S'I-NP'
p268
tp269
F1.2872829319156057e-05
s(S'RBS'
p270
S'I-VP'
p271
tp272
F0.00040958427196395656
s(S'``'
p273
S'B-PP'
p274
tp275
F7.665184730952016e-05
s(S'FW'
p276
g2
tp277
F8.562926808383106e-05
s(S'END'
p278
S'EN'
p279
tp280
F1.0
s(S'PRP'
p281
S'B-NP'
p282
tp283
F0.06830807519665792
s(g63
g2
tp284
F0.2669492432513433
s(S'RBR'
p285
S'B-NP'
p286
tp287
F0.0009481060101032547
s(S'JJ'
p288
S'B-VP'
p289
tp290
F0.002105263157894737
s(S'WRB'
p291
g2
tp292
F0.01177402436152677
s(S'POS'
p293
S'I-NP'
p294
tp295
F0.00016734678114902876
s(S'VBG'
p296
S'I-NP'
p297
tp298
F0.005277860020853983
s(g15
g2
tp299
F0.0005565902425449018
s(S'IN'
p300
g2
tp301
F0.08361698028386103
s(S'``'
p302
S'B-NP'
p303
tp304
F0.0006666370383538509
s(S'Shell'
p305
S'I-NP'
p306
tp307
F1.2872829319156057e-05
s(S'JJR'
p308
g2
tp309
F0.006743304861601696
s(S'CD'
p310
g2
tp311
F0.002740136578682594
s(S'VB'
p312
g2
tp313
F0.0006636268276496907
s(S'IN'
p314
S'B-NP'
p315
tp316
F0.007495963142378857
s(S'casino'
p317
S'I-NP'
p318
tp319
F1.2872829319156057e-05
s(S'TO'
p320
S'I-PP'
p321
tp322
F0.02064896755162242
s(S'SYM'
p323
S'B-VP'
p324
tp325
F7.655502392344497e-05
s(S'WDT'
p326
S'B-NP'
p327
tp328
F0.016991837399819267
s(S''
p329
S'B-NP'
p330
tp331
F1.4814156407863355e-05
s(S'RB'
p332
S'B-VP'
p333
tp334
F0.008842105263157894
s(S'IN'
p335
S'I-PP'
p336
tp337
F0.8377581120943953
s(S'JJR'
p338
S'B-VP'
p339
tp340
F0.00019138755980861245
s(S'('
p341
S'I-NP'
p342
tp343
F0.00014160112251071662
s(g21
S'B-NP'
p344
tp345
F0.0001629557204864969
s(S'UH'
p346
S'I-NP'
p347
tp348
F3.861848795746817e-05
s(S'CC'
p349
S'I-NP'
p350
tp351
F0.022308613210097448
s(S'VBD'
p352
S'I-VP'
p353
tp354
F0.009488702300498328
s(S'VBP'
p355
S'I-VP'
p356
tp357
F0.001979657314492457
s(S'product'
p358
S'I-NP'
p359
tp360
F1.2872829319156057e-05
s(S'VBZ'
p361
S'I-NP'
p362
tp363
F0.001132808980085733
s(S'NNS'
p364
S'B-VP'
p365
tp366
F0.006392344497607656
s(S'``'
p367
S'I-NP'
p368
tp369
F0.0023557277654055585
s(S'MD'
p370
S'I-NP'
p371
tp372
F0.00011585546387240451
s(S'NNP'
p373
S'I-NP'
p374
tp375
F0.18236937296448386
s(S'Japanese'
p376
S'I-NP'
p377
tp378
F1.2872829319156057e-05
s(S'JJ'
p379
S'I-NP'
p380
tp381
F0.10694746598354853
s(S'DT'
p382
S'B-PP'
p383
tp384
F0.0001916296182738004
s(g329
S'I-NP'
p385
tp386
F0.00011585546387240451
s(S'VBZ'
p387
g2
tp388
F0.0006208121936077751
s(S'VBN'
p389
S'I-VP'
p390
tp391
F0.2380367260563861
s(S'WAD'
p392
S'B-NP'
p393
tp394
F1.4814156407863355e-05
s(g121
S'I-NP'
p395
tp396
F0.0002703294157022772
s(S'NN'
p397
S'I-NP'
p398
tp399
F0.3841123540542976
s(S'4'
p400
S'B-NP'
p401
tp402
F0.00034072559738085713
s(S'RB'
p403
S'B-NP'
p404
tp405
F0.011199502244344696
s(g341
g2
tp406
F0.0071928585190418086
s(S'JJR'
p407
S'B-NP'
p408
tp409
F0.006992281824511503
s(S'TO'
p410
S'B-PP'
p411
tp412
F0.09707956461750729
s(S'VBD'
p413
S'B-PP'
p414
tp415
F0.00015330369461904033
s(S'VBD'
p416
S'B-NP'
p417
tp418
F0.000459238848643764
s(S'POS'
p419
S'B-VP'
p420
tp421
F0.00022966507177033492
s(S'Europe'
p422
S'I-NP'
p423
tp424
F1.2872829319156057e-05
s(S'WRB'
p425
S'B-NP'
p426
tp427
F0.0002666548153415404
s(S'NNS'
p428
g2
tp429
F0.0002782951212724509
s(S'DT'
p430
S'B-VP'
p431
tp432
F0.00015311004784688995
s(S'NNP'
p433
S'B-NP'
p434
tp435
F0.15360798779313511
s(S'CD'
p436
S'I-NP'
p437
tp438
F0.07601405712961652
s(S'PDT'
p439
S'I-NP'
p440
tp441
F0.00014160112251071662
s(S'30'
p442
S'I-NP'
p443
tp444
F1.2872829319156057e-05
s(S'Bunker'
p445
S'I-NP'
p446
tp447
F1.2872829319156057e-05
s(S'DT'
p448
g2
tp449
F0.005501680474386145
s(S'WP'
p450
S'I-NP'
p451
tp452
F3.861848795746817e-05
s(g63
S'I-VP'
p453
tp454
F0.0007509044986005871
s(g132
S'I-NP'
p455
tp456
F0.00019309243978734086
s(S'RB'
p457
S'I-NP'
p458
tp459
F0.004698582701491961
s(g63
S'I-NP'
p460
tp461
F0.008019772665834224
s(g181
S'I-NP'
p462
tp463
F9.01098052340924e-05
s(S'RBR'
p464
S'B-VP'
p465
tp466
F7.655502392344497e-05
s(S'NNS'
p467
S'I-NP'
p468
tp469
F0.1575119395491935
s(S'VB'
p470
S'B-NP'
p471
tp472
F0.0022221234611795033
s(S'SYM'
p473
g2
tp474
F8.562926808383106e-05
s(S'VBG'
p475
S'I-PP'
p476
tp477
F0.0029498525073746312
s(S'FW'
p478
S'B-NP'
p479
tp480
F0.00011851325126290684
s(S'national-government'
p481
S'I-NP'
p482
tp483
F1.2872829319156057e-05
s(S'UH'
p484
S'B-NP'
p485
tp486
F1.4814156407863355e-05
s(S'VBZ'
p487
S'B-VP'
p488
tp489
F0.20470813397129187
s(S'IN'
p490
S'B-VP'
p491
tp492
F0.00011483253588516746
s(g15
S'B-NP'
p493
tp494
F0.023124898152674697
s(S'RBS'
p495
S'B-NP'
p496
tp497
F0.0015258581100099254
s(S'VBZ'
p498
S'B-NP'
p499
tp500
F0.0008888493844718012
s(S'NNP'
p501
S'B-VP'
p502
tp503
F0.0008421052631578948
s(S'RBR'
p504
g2
tp505
F0.00573716096161668
s(S'16'
p506
S'I-NP'
p507
tp508
F0.0002960750743405893
s(S'JJR'
p509
S'I-VP'
p510
tp511
F0.0008191685439279131
s(S'JJS'
p512
S'I-NP'
p513
tp514
F0.0043510163098747475
s(S'Norstar'
p515
S'B-NP'
p516
tp517
F1.4814156407863355e-05
s(S'NN'
p518
g2
tp519
F0.004623980476526877
s(S'diversified'
p520
S'I-NP'
p521
tp522
F1.2872829319156057e-05
s(S'states'
p523
S'I-NP'
p524
tp525
F1.2872829319156057e-05
s(S'VBG'
p526
S'I-VP'
p527
tp528
F0.07959587685166222
s(S'PDT'
p529
S'B-NP'
p530
tp531
F0.000711079507577441
s(S'VBP'
p532
S'B-PP'
p533
tp534
F3.832592365476008e-05
s(S'2-year'
p535
S'I-NP'
p536
tp537
F2.5745658638312115e-05
s(S'RB'
p538
g2
tp539
F0.10692954851968403
s(S'WP'
p540
g2
tp541
F2.1407317020957764e-05
s(S'VBP'
p542
g2
tp543
F0.0005565902425449018
s(S'PDT'
p544
g2
tp545
F0.00012844390212574659
s(S'NNPS'
p546
S'I-NP'
p547
tp548
F0.005985865633407567
s(S'DT'
p549
S'I-NP'
p550
tp551
F0.004466871773747152
s(S'PRP$'
p552
g2
tp553
F0.00014985121914670434
s(S'WDT'
p554
g2
tp555
F0.00021407317020957764
s(S'WP'
p556
S'B-NP'
p557
tp558
F0.00940698931899323
s(S'CC'
p559
g2
tp560
F0.09815254854109134
s(S'MD'
p561
g2
tp562
F0.0008776999978592683
s(S'CD'
p563
S'B-NP'
p564
tp565
F0.055804927188421255
s(S'VBN'
p566
g2
tp567
F0.003938946331856229
s(g341
S'I-VP'
p568
tp569
F6.82640453273261e-05
s(g181
S'B-NP'
p570
tp571
F0.0001629557204864969
s(S'Donoghue'
p572
S'B-NP'
p573
tp574
F4.444246922359006e-05
s(S'Leber'
p575
S'B-NP'
p576
tp577
F1.4814156407863355e-05
s(S'32'
p578
S'I-NP'
p579
tp580
F0.00034756639161721354
s(S'CC'
p581
S'I-VP'
p582
tp583
F0.008669533756570414
s(S'CCL'
p584
S'B-NP'
p585
tp586
F1.4814156407863355e-05
s(S'earnings'
p587
S'I-NP'
p588
tp589
F3.861848795746817e-05
s(g400
S'I-NP'
p590
tp591
F0.0013773927371496981
s(S'TO'
p592
S'I-NP'
p593
tp594
F0.0014675025423837905
s(S'CD'
p595
S'B-VP'
p596
tp597
F7.655502392344497e-05
s(S'DT'
p598
S'B-NP'
p599
tp600
F0.32194124705568644
s(S'NNPS'
p601
S'B-NP'
p602
tp603
F0.0012592032946683852
s(S'NNP'
p604
S'I-VP'
p605
tp606
F0.00020479213598197828
s(S'RBS'
p607
g2
tp608
F0.0006850341446706485
s(S'``'
p609
S'I-VP'
p610
tp611
F0.0012970168612191958
s(S'JJS'
p612
S'B-PP'
p613
tp614
F3.832592365476008e-05
s(S'JJS'
p615
S'B-NP'
p616
tp617
F0.0007851502896167577
s(S'TO'
p618
S'I-VP'
p619
tp620
F0.09297562973581815
s(S'16'
p621
S'B-NP'
p622
tp623
F1.4814156407863355e-05
s(S'WP$'
p624
S'B-NP'
p625
tp626
F0.0005777520999066708
s(S'state'
p627
S'I-NP'
p628
tp629
F1.2872829319156057e-05
s(S'Mutual'
p630
S'B-NP'
p631
tp632
F1.4814156407863355e-05
s(S'RBR'
p633
S'I-VP'
p634
tp635
F0.00034132022663663046
s(S'RBS'
p636
S'I-NP'
p637
tp638
F0.0012100459560006693
s(S"''"
p639
S'B-NP'
p640
tp641
F0.00017776987689436025
s(S'FW'
p642
S'I-NP'
p643
tp644
F0.0003861848795746817
s(g341
S'B-NP'
p645
tp646
F4.444246922359006e-05
s(S'PRP'
p647
g2
tp648
F8.562926808383106e-05
s(S'RBR'
p649
S'I-NP'
p650
tp651
F0.0006436414659578029
s(g132
S'B-NP'
p652
tp653
F0.00037035391019658387
s(S'VBP'
p654
S'I-NP'
p655
tp656
F0.0010169535162133285
s(S'POS'
p657
S'B-NP'
p658
tp659
F0.03232448928195784
s(S'8'
p660
S'I-NP'
p661
tp662
F0.0016605949821711314
s(S'A-18'
p663
S'I-NP'
p664
tp665
F1.2872829319156057e-05
s(S'WRB'
p666
S'I-NP'
p667
tp668
F3.861848795746817e-05
s(g181
S'B-PP'
p669
tp670
F7.665184730952016e-05
s(g63
S'B-PP'
p671
tp672
F0.0008814962440594819
s(S'RB'
p673
S'B-PP'
p674
tp675
F0.003257703510654607
s(S"''"
p676
S'B-PP'
p677
tp678
F3.832592365476008e-05
s(g660
S'B-NP'
p679
tp680
F0.000503681317867354
s.