(dp0
(S'I-PP'
p1
S'B-PP'
p2
tp3
F0.000919822167714242
s(S'B-VP'
p4
S'I-VP'
p5
tp6
F0.6711038296129429
s(S'I-NP'
p7
S'I-NP'
p8
tp9
F0.40362756330213817
s(S'ST'
p10
S'B-NP'
p11
tp12
F0.1051064397137905
s(S'B-NP'
p13
S'B-NP'
p14
tp15
F0.029065374872227902
s(g11
S'B-PP'
p16
tp17
F0.14858960600950483
s(S'I-NP'
p18
S'B-NP'
p19
tp20
F0.056234537724249294
s(g10
S'B-PP'
p21
tp22
F0.0457994787674383
s(S'I-PP'
p23
S'B-NP'
p24
tp25
F0.003896123135268062
s(S'I-PP'
p26
S'O'
p27
tp28
F0.00034251707233532423
s(S'I-NP'
p29
g4
tp30
F0.4012631578947368
s(S'B-PP'
p31
S'EN'
p32
tp33
F0.0005480453050785532
s(S'I-VP'
p34
g32
tp35
F9.134088417975886e-05
s(S'B-VP'
p36
S'B-PP'
p37
tp38
F0.09776943124329296
s(S'B-VP'
p39
S'B-NP'
p40
tp41
F0.13363850495533533
s(S'I-VP'
p42
S'B-PP'
p43
tp44
F0.08201747662118657
s(g27
g27
tp45
F0.22623252627748164
s(S'I-NP'
p46
S'B-PP'
p47
tp48
F0.4654683427870612
s(g10
S'B-VP'
p49
tp50
F0.00830622009569378
s(S'I-VP'
p51
S'B-NP'
p52
tp53
F0.07716694072856022
s(g27
S'B-VP'
p54
tp55
F0.21523444976076556
s(S'B-NP'
p56
g39
tp57
F0.3354258373205742
s(g27
S'B-NP'
p58
tp59
F0.23643393626949913
s(S'I-PP'
p60
S'I-PP'
p61
tp62
F0.06489675516224189
s(g27
S'B-PP'
p63
tp64
F0.14184424344626706
s(S'B-PP'
p65
S'B-PP'
p66
tp67
F0.017591598957534878
s(g16
S'B-NP'
p68
tp69
F0.35845814260106956
s(g68
g29
tp70
F0.5963724366978618
s(S'B-VP'
p71
g32
tp72
F9.134088417975886e-05
s(S'B-PP'
p73
S'B-VP'
p74
tp75
F0.027444976076555026
s(S'I-VP'
p76
S'B-VP'
p77
tp78
F0.004899521531100478
s(g8
g27
tp79
F0.4247639843298439
s(S'I-PP'
p80
S'B-VP'
p81
tp82
F0.0005358851674641148
s(S'I-VP'
p83
g27
tp84
F0.050371416950313615
s(S'B-PP'
p85
g27
tp86
F0.008477297540299274
s(S'I-NP'
p87
g32
tp88
F0.00566313481914505
s(g5
S'I-VP'
p89
tp90
F0.32889617038705715
s(S'B-NP'
p91
g27
tp92
F0.1403463703893991
s(g27
g32
tp93
F0.992053343076361
s(g10
g27
tp94
F0.0522552608481579
s(S'B-NP'
p95
g32
tp96
F0.0015527950310559005
s(S'B-VP'
p97
g27
tp98
F0.0972106265921692
s(S'B-VP'
p99
S'B-VP'
p100
tp101
F0.006889952153110048
s(S'B-PP'
p102
g23
tp103
F0.9351032448377581
s.